target datalayout = "e-m:e-p270:32:32-p271:32:32-p272:64:64-i64:64-i128:128-f80:128-n8:16:32:64-S128"
target triple = "x86_64-pc-linux-gnu"

%struct._value_string = type { i32, ptr }
%struct.raknet_session_state = type { i8, ptr }
%struct._packet_info = type { ptr, ptr, i32, i32, %struct.nstime_t, %struct.nstime_t, %struct.nstime_t, i8, ptr, ptr, ptr, ptr, %struct._address, %struct._address, %struct._address, %struct._address, %struct._address, %struct._address, i32, ptr, i8, [3 x i8], %struct.anon, i32, i32, i32, i32, ptr, i8, ptr, ptr, i16, i16, i32, i32, i16, i32, i32, ptr, ptr, ptr, i8, i8, i16, i16, i16, i32, i16, i16, ptr, ptr, ptr, ptr, ptr, i32, i32 }
%struct.nstime_t = type { i64, i32 }
%struct._address = type { i32, i32, ptr, ptr }
%struct.anon = type { i8, [3 x i8] }

@hf_raknet_offline_message_id = internal global i32 0, align 4
@raknet_offline_message_names = internal global [15 x %struct._value_string] zeroinitializer, align 16
@hf_raknet_offline_message_data_id = internal global i32 0, align 4
@hf_raknet_mtu_size = internal global i32 0, align 4
@hf_raknet_server_guid = internal global i32 0, align 4
@hf_raknet_use_encryption = internal global i32 0, align 4
@hf_raknet_server_public_key = internal global i32 0, align 4
@hf_raknet_cookie = internal global i32 0, align 4
@ett_raknet = internal global i32 0, align 4
@proto_raknet = internal global i32 0, align 4
@.str.205 = private unnamed_addr constant [29 x i8] c"Unknown offline message: %#x\00", align 1
@.str.206 = private unnamed_addr constant [25 x i8] c", Offline message ID %#x\00", align 1

; Function Attrs: null_pointer_is_valid sspstrong uwtable
define internal ptr @raknet_get_session_state(ptr noundef %0) #0 {
  %2 = alloca ptr, align 8
  %3 = alloca ptr, align 8
  %4 = alloca ptr, align 8
  store ptr %0, ptr %2, align 8
  call void @llvm.lifetime.start.p0(i64 8, ptr %3) #6
  call void @llvm.lifetime.start.p0(i64 8, ptr %4) #6
  %5 = load ptr, ptr %2, align 8
  %6 = call ptr @find_or_create_conversation(ptr noundef %5)
  store ptr %6, ptr %3, align 8
  %7 = load ptr, ptr %3, align 8
  %8 = load i32, ptr @proto_raknet, align 4
  %9 = call ptr @conversation_get_proto_data(ptr noundef %7, i32 noundef %8)
  store ptr %9, ptr %4, align 8
  %10 = load ptr, ptr %4, align 8
  %11 = icmp eq ptr %10, null
  br i1 %11, label %12, label %22

12:                                               ; preds = %1
  %13 = call ptr @wmem_file_scope()
  %14 = call noalias ptr @wmem_alloc(ptr noundef %13, i64 noundef 16) #7
  store ptr %14, ptr %4, align 8
  %15 = load ptr, ptr %4, align 8
  %16 = getelementptr inbounds nuw %struct.raknet_session_state, ptr %15, i32 0, i32 0
  store i8 0, ptr %16, align 8
  %17 = load ptr, ptr %4, align 8
  %18 = getelementptr inbounds nuw %struct.raknet_session_state, ptr %17, i32 0, i32 1
  store ptr null, ptr %18, align 8
  %19 = load ptr, ptr %3, align 8
  %20 = load i32, ptr @proto_raknet, align 4
  %21 = load ptr, ptr %4, align 8
  call void @conversation_add_proto_data(ptr noundef %19, i32 noundef %20, ptr noundef %21)
  br label %22

22:                                               ; preds = %12, %1
  %23 = load ptr, ptr %4, align 8
  call void @llvm.lifetime.end.p0(i64 8, ptr %4) #6
  call void @llvm.lifetime.end.p0(i64 8, ptr %3) #6
  ret ptr %23
}

; Function Attrs: null_pointer_is_valid sspstrong uwtable
define internal ptr @init_raknet_offline_message(ptr noundef %0, ptr noundef %1, ptr noundef %2, ptr noundef %3) #0 {
  %5 = alloca ptr, align 8
  %6 = alloca ptr, align 8
  %7 = alloca ptr, align 8
  %8 = alloca ptr, align 8
  %9 = alloca ptr, align 8
  %10 = alloca ptr, align 8
  %11 = alloca i8, align 1
  store ptr %0, ptr %5, align 8
  store ptr %1, ptr %6, align 8
  store ptr %2, ptr %7, align 8
  store ptr %3, ptr %8, align 8
  call void @llvm.lifetime.start.p0(i64 8, ptr %9) #6
  call void @llvm.lifetime.start.p0(i64 8, ptr %10) #6
  call void @llvm.lifetime.start.p0(i64 1, ptr %11) #6
  %12 = load ptr, ptr %8, align 8
  store i32 0, ptr %12, align 4
  %13 = load ptr, ptr %7, align 8
  %14 = load i32, ptr @proto_raknet, align 4
  %15 = load ptr, ptr %5, align 8
  %16 = call ptr @proto_tree_add_item(ptr noundef %13, i32 noundef %14, ptr noundef %15, i32 noundef 0, i32 noundef -1, i32 noundef 0)
  store ptr %16, ptr %10, align 8
  %17 = load ptr, ptr %10, align 8
  %18 = load i32, ptr @ett_raknet, align 4
  %19 = call ptr @proto_item_add_subtree(ptr noundef %17, i32 noundef %18)
  store ptr %19, ptr %9, align 8
  %20 = load ptr, ptr %5, align 8
  %21 = load ptr, ptr %8, align 8
  %22 = load i32, ptr %21, align 4
  %23 = call zeroext i8 @tvb_get_uint8(ptr noundef %20, i32 noundef %22)
  store i8 %23, ptr %11, align 1
  %24 = load ptr, ptr %9, align 8
  %25 = load i32, ptr @hf_raknet_offline_message_id, align 4
  %26 = load ptr, ptr %5, align 8
  %27 = load ptr, ptr %8, align 8
  %28 = load i32, ptr %27, align 4
  %29 = call ptr @proto_tree_add_item(ptr noundef %24, i32 noundef %25, ptr noundef %26, i32 noundef %28, i32 noundef 1, i32 noundef 0)
  %30 = load ptr, ptr %8, align 8
  %31 = load i32, ptr %30, align 4
  %32 = add i32 %31, 1
  store i32 %32, ptr %30, align 4
  %33 = load ptr, ptr %6, align 8
  %34 = getelementptr inbounds nuw %struct._packet_info, ptr %33, i32 0, i32 1
  %35 = load ptr, ptr %34, align 8
  %36 = load i8, ptr %11, align 1
  %37 = zext i8 %36 to i32
  %38 = call ptr @val_to_str(i32 noundef %37, ptr noundef @raknet_offline_message_names, ptr noundef @.str.205)
  call void @col_add_str(ptr noundef %35, i32 noundef 25, ptr noundef %38)
  %39 = load ptr, ptr %10, align 8
  %40 = load i8, ptr %11, align 1
  %41 = zext i8 %40 to i32
  call void (ptr, ptr, ...) @proto_item_append_text(ptr noundef %39, ptr noundef @.str.206, i32 noundef %41)
  %42 = load ptr, ptr %9, align 8
  call void @llvm.lifetime.end.p0(i64 1, ptr %11) #6
  call void @llvm.lifetime.end.p0(i64 8, ptr %10) #6
  call void @llvm.lifetime.end.p0(i64 8, ptr %9) #6
  ret ptr %42
}

; Function Attrs: null_pointer_is_valid sspstrong uwtable
define internal i32 @raknet_dissect_open_connection_reply_1(ptr noundef %0, ptr noundef %1, ptr noundef %2, ptr noundef %3) #0 {
  %5 = alloca ptr, align 8
  %6 = alloca ptr, align 8
  %7 = alloca ptr, align 8
  %8 = alloca ptr, align 8
  %9 = alloca ptr, align 8
  %10 = alloca i32, align 4
  %11 = alloca ptr, align 8
  store ptr %0, ptr %5, align 8
  store ptr %1, ptr %6, align 8
  store ptr %2, ptr %7, align 8
  store ptr %3, ptr %8, align 8
  call void @llvm.lifetime.start.p0(i64 8, ptr %9) #6
  call void @llvm.lifetime.start.p0(i64 4, ptr %10) #6
  call void @llvm.lifetime.start.p0(i64 8, ptr %11) #6
  %12 = load ptr, ptr %5, align 8
  %13 = load ptr, ptr %6, align 8
  %14 = load ptr, ptr %7, align 8
  %15 = call ptr @init_raknet_offline_message(ptr noundef %12, ptr noundef %13, ptr noundef %14, ptr noundef %10)
  store ptr %15, ptr %9, align 8
  %16 = load ptr, ptr %9, align 8
  %17 = load i32, ptr @hf_raknet_offline_message_data_id, align 4
  %18 = load ptr, ptr %5, align 8
  %19 = load i32, ptr %10, align 4
  %20 = call ptr @proto_tree_add_item(ptr noundef %16, i32 noundef %17, ptr noundef %18, i32 noundef %19, i32 noundef 16, i32 noundef 0)
  %21 = load i32, ptr %10, align 4
  %22 = add i32 %21, 16
  store i32 %22, ptr %10, align 4
  %23 = load ptr, ptr %9, align 8
  %24 = load i32, ptr @hf_raknet_server_guid, align 4
  %25 = load ptr, ptr %5, align 8
  %26 = load i32, ptr %10, align 4
  %27 = call ptr @proto_tree_add_item(ptr noundef %23, i32 noundef %24, ptr noundef %25, i32 noundef %26, i32 noundef 8, i32 noundef 0)
  %28 = load i32, ptr %10, align 4
  %29 = add i32 %28, 8
  store i32 %29, ptr %10, align 4
  %30 = load ptr, ptr %6, align 8
  %31 = call ptr @raknet_get_session_state(ptr noundef %30)
  store ptr %31, ptr %11, align 8
  %32 = load ptr, ptr %5, align 8
  %33 = load i32, ptr %10, align 4
  %34 = call zeroext i8 @tvb_get_uint8(ptr noundef %32, i32 noundef %33)
  %35 = zext i8 %34 to i32
  %36 = icmp ne i32 %35, 0
  %37 = select i1 %36, i32 1, i32 0
  %38 = icmp ne i32 %37, 0
  %39 = load ptr, ptr %11, align 8
  %40 = getelementptr inbounds nuw %struct.raknet_session_state, ptr %39, i32 0, i32 0
  %41 = zext i1 %38 to i8
  store i8 %41, ptr %40, align 8
  %42 = load ptr, ptr %9, align 8
  %43 = load i32, ptr @hf_raknet_use_encryption, align 4
  %44 = load ptr, ptr %5, align 8
  %45 = load i32, ptr %10, align 4
  %46 = call ptr @proto_tree_add_item(ptr noundef %42, i32 noundef %43, ptr noundef %44, i32 noundef %45, i32 noundef 1, i32 noundef 0)
  %47 = load i32, ptr %10, align 4
  %48 = add i32 %47, 1
  store i32 %48, ptr %10, align 4
  %49 = load ptr, ptr %11, align 8
  %50 = getelementptr inbounds nuw %struct.raknet_session_state, ptr %49, i32 0, i32 0
  %51 = load i8, ptr %50, align 8, !range !11, !noundef !12
  %52 = trunc i8 %51 to i1
  br i1 %52, label %53, label %68

53:                                               ; preds = %4
  %54 = load ptr, ptr %9, align 8
  %55 = load i32, ptr @hf_raknet_cookie, align 4
  %56 = load ptr, ptr %5, align 8
  %57 = load i32, ptr %10, align 4
  %58 = call ptr @proto_tree_add_item(ptr noundef %54, i32 noundef %55, ptr noundef %56, i32 noundef %57, i32 noundef 4, i32 noundef 0)
  %59 = load i32, ptr %10, align 4
  %60 = add i32 %59, 4
  store i32 %60, ptr %10, align 4
  %61 = load ptr, ptr %9, align 8
  %62 = load i32, ptr @hf_raknet_server_public_key, align 4
  %63 = load ptr, ptr %5, align 8
  %64 = load i32, ptr %10, align 4
  %65 = call ptr @proto_tree_add_item(ptr noundef %61, i32 noundef %62, ptr noundef %63, i32 noundef %64, i32 noundef 64, i32 noundef 0)
  %66 = load i32, ptr %10, align 4
  %67 = add i32 %66, 64
  store i32 %67, ptr %10, align 4
  br label %68

68:                                               ; preds = %53, %4
  %69 = load ptr, ptr %9, align 8
  %70 = load i32, ptr @hf_raknet_mtu_size, align 4
  %71 = load ptr, ptr %5, align 8
  %72 = load i32, ptr %10, align 4
  %73 = call ptr @proto_tree_add_item(ptr noundef %69, i32 noundef %70, ptr noundef %71, i32 noundef %72, i32 noundef 2, i32 noundef 0)
  %74 = load i32, ptr %10, align 4
  %75 = add i32 %74, 2
  store i32 %75, ptr %10, align 4
  %76 = load i32, ptr %10, align 4
  call void @llvm.lifetime.end.p0(i64 8, ptr %11) #6
  call void @llvm.lifetime.end.p0(i64 4, ptr %10) #6
  call void @llvm.lifetime.end.p0(i64 8, ptr %9) #6
  ret i32 %76
}