; Function Attrs: null_pointer_is_valid sspstrong uwtable
define internal range(i32 28, 97) i32 @raknet_dissect_open_connection_reply_1(ptr noundef %0, ptr noundef %1, ptr noundef %2, ptr readnone captures(none) %3) #0 {
  %5 = load i32, ptr @proto_raknet, align 4
  %6 = tail call ptr @proto_tree_add_item(ptr noundef %2, i32 noundef %5, ptr noundef %0, i32 noundef 0, i32 noundef -1, i32 noundef 0)
  %7 = load i32, ptr @ett_raknet, align 4
  %8 = tail call ptr @proto_item_add_subtree(ptr noundef %6, i32 noundef %7)
  %9 = tail call zeroext i8 @tvb_get_uint8(ptr noundef %0, i32 noundef 0)
  %10 = load i32, ptr @hf_raknet_offline_message_id, align 4
  %11 = tail call ptr @proto_tree_add_item(ptr noundef %8, i32 noundef %10, ptr noundef %0, i32 noundef 0, i32 noundef 1, i32 noundef 0)
  %12 = getelementptr inbounds nuw i8, ptr %1, i64 8
  %13 = load ptr, ptr %12, align 8
  %14 = zext i8 %9 to i32
  %15 = tail call ptr @val_to_str(i32 noundef %14, ptr noundef nonnull @raknet_offline_message_names, ptr noundef nonnull @.str.205)
  tail call void @col_add_str(ptr noundef %13, i32 noundef 25, ptr noundef %15)
  tail call void (ptr, ptr, ...) @proto_item_append_text(ptr noundef %6, ptr noundef nonnull @.str.206, i32 noundef %14)
  %16 = load i32, ptr @hf_raknet_offline_message_data_id, align 4
  %17 = tail call ptr @proto_tree_add_item(ptr noundef %8, i32 noundef %16, ptr noundef %0, i32 noundef 1, i32 noundef 16, i32 noundef 0)
  %18 = load i32, ptr @hf_raknet_server_guid, align 4
  %19 = tail call ptr @proto_tree_add_item(ptr noundef %8, i32 noundef %18, ptr noundef %0, i32 noundef 17, i32 noundef 8, i32 noundef 0)
  %20 = tail call ptr @find_or_create_conversation(ptr noundef %1)
  %21 = load i32, ptr @proto_raknet, align 4
  %22 = tail call ptr @conversation_get_proto_data(ptr noundef %20, i32 noundef %21)
  %23 = icmp eq ptr %22, null
  br i1 %23, label %24, label %raknet_get_session_state.exit

24:                                               ; preds = %4
  %25 = tail call ptr @wmem_file_scope()
  %26 = tail call noalias dereferenceable_or_null(16) ptr @wmem_alloc(ptr noundef %25, i64 noundef 16) #4
  store i8 0, ptr %26, align 8
  %27 = getelementptr inbounds nuw i8, ptr %26, i64 8
  store ptr null, ptr %27, align 8
  %28 = load i32, ptr @proto_raknet, align 4
  tail call void @conversation_add_proto_data(ptr noundef %20, i32 noundef %28, ptr noundef %26)
  br label %raknet_get_session_state.exit

raknet_get_session_state.exit:                    ; preds = %4, %24
  %.0.i = phi ptr [ %26, %24 ], [ %22, %4 ]
  %29 = tail call zeroext i8 @tvb_get_uint8(ptr noundef %0, i32 noundef 25)
  %30 = icmp ne i8 %29, 0
  %31 = zext i1 %30 to i8
  store i8 %31, ptr %.0.i, align 8
  %32 = load i32, ptr @hf_raknet_use_encryption, align 4
  %33 = tail call ptr @proto_tree_add_item(ptr noundef %8, i32 noundef %32, ptr noundef %0, i32 noundef 25, i32 noundef 1, i32 noundef 0)
  %34 = load i8, ptr %.0.i, align 8, !range !9, !noundef !10
  %35 = trunc nuw i8 %34 to i1
  br i1 %35, label %36, label %41

36:                                               ; preds = %raknet_get_session_state.exit
  %37 = load i32, ptr @hf_raknet_cookie, align 4
  %38 = tail call ptr @proto_tree_add_item(ptr noundef %8, i32 noundef %37, ptr noundef %0, i32 noundef 26, i32 noundef 4, i32 noundef 0)
  %39 = load i32, ptr @hf_raknet_server_public_key, align 4
  %40 = tail call ptr @proto_tree_add_item(ptr noundef %8, i32 noundef %39, ptr noundef %0, i32 noundef 30, i32 noundef 64, i32 noundef 0)
  br label %41

41:                                               ; preds = %36, %raknet_get_session_state.exit
  %.0 = phi i32 [ 94, %36 ], [ 26, %raknet_get_session_state.exit ]
  %42 = load i32, ptr @hf_raknet_mtu_size, align 4
  %43 = tail call ptr @proto_tree_add_item(ptr noundef %8, i32 noundef %42, ptr noundef %0, i32 noundef %.0, i32 noundef 2, i32 noundef 0)
  %44 = add nuw nsw i32 %.0, 2
  ret i32 %44
}